target datalayout = "e-m:e-p270:32:32-p271:32:32-p272:64:64-i64:64-i128:128-f80:128-n8:16:32:64-S128"
target triple = "x86_64-pc-linux-gnu"

%struct.RelationData = type { %struct.RelFileLocator, ptr, i32, i32, i8, i8, i8, i8, i8, i32, i32, i32, i32, ptr, ptr, i32, %struct.LockInfoData, ptr, ptr, ptr, ptr, ptr, i8, ptr, ptr, ptr, ptr, ptr, ptr, i32, ptr, i8, ptr, ptr, i32, i8, i32, ptr, i8, ptr, ptr, ptr, ptr, ptr, ptr, ptr, i32, ptr, ptr, ptr, ptr, ptr, ptr, ptr, ptr, ptr, ptr, ptr, ptr, ptr, ptr, ptr, ptr, ptr, ptr, ptr, i32, i8, ptr }
%struct.RelFileLocator = type { i32, i32, i32 }
%struct.LockInfoData = type { %struct.LockRelId }
%struct.LockRelId = type { i32, i32 }
%struct.FormData_pg_index = type { i32, i32, i16, i16, i8, i8, i8, i8, i8, i8, i8, i8, i8, i8, i8, %struct.int2vector }
%struct.int2vector = type { i32, i32, i32, i32, i32, i32, [0 x i16] }
%struct.IndexTupleData = type { %struct.ItemPointerData, i16 }
%struct.ItemPointerData = type { %struct.BlockIdData, i16 }
%struct.BlockIdData = type { i16, i16 }
%struct.BTScanInsertData = type { i8, i8, i8, i8, i8, ptr, i32, [32 x %struct.ScanKeyData] }
%struct.ScanKeyData = type { i32, i16, i16, i32, i32, %struct.FmgrInfo, i64 }
%struct.FmgrInfo = type { ptr, i32, i16, i8, i8, i8, ptr, ptr, ptr }

; Function Attrs: inlinehint nounwind uwtable
define internal i32 @BlockIdGetBlockNumber(ptr noundef %0) #2 {
  %2 = alloca ptr, align 8
  store ptr %0, ptr %2, align 8
  %3 = load ptr, ptr %2, align 8
  %4 = getelementptr inbounds nuw %struct.BlockIdData, ptr %3, i32 0, i32 0
  %5 = load i16, ptr %4, align 2
  %6 = zext i16 %5 to i32
  %7 = shl i32 %6, 16
  %8 = load ptr, ptr %2, align 8
  %9 = getelementptr inbounds nuw %struct.BlockIdData, ptr %8, i32 0, i32 1
  %10 = load i16, ptr %9, align 2
  %11 = zext i16 %10 to i32
  %12 = or i32 %7, %11
  ret i32 %12
}

; Function Attrs: inlinehint nounwind uwtable
define internal i32 @ItemPointerGetBlockNumberNoCheck(ptr noundef %0) #2 {
  %2 = alloca ptr, align 8
  store ptr %0, ptr %2, align 8
  %3 = load ptr, ptr %2, align 8
  %4 = getelementptr inbounds nuw %struct.ItemPointerData, ptr %3, i32 0, i32 0
  %5 = call i32 @BlockIdGetBlockNumber(ptr noundef %4)
  ret i32 %5
}

; Function Attrs: inlinehint nounwind uwtable
define internal i32 @BTreeTupleGetPostingOffset(ptr noundef %0) #2 {
  %2 = alloca ptr, align 8
  store ptr %0, ptr %2, align 8
  %3 = load ptr, ptr %2, align 8
  %4 = getelementptr inbounds nuw %struct.IndexTupleData, ptr %3, i32 0, i32 0
  %5 = call i32 @ItemPointerGetBlockNumberNoCheck(ptr noundef %4)
  ret i32 %5
}

; Function Attrs: inlinehint nounwind uwtable
define internal ptr @BTreeTupleGetPosting(ptr noundef %0) #2 {
  %2 = alloca ptr, align 8
  store ptr %0, ptr %2, align 8
  %3 = load ptr, ptr %2, align 8
  %4 = load ptr, ptr %2, align 8
  %5 = call i32 @BTreeTupleGetPostingOffset(ptr noundef %4)
  %6 = zext i32 %5 to i64
  %7 = getelementptr inbounds nuw i8, ptr %3, i64 %6
  ret ptr %7
}

; Function Attrs: inlinehint nounwind uwtable
define internal zeroext i1 @BTreeTupleIsPosting(ptr noundef %0) #2 {
  %2 = alloca i1, align 1
  %3 = alloca ptr, align 8
  store ptr %0, ptr %3, align 8
  %4 = load ptr, ptr %3, align 8
  %5 = getelementptr inbounds nuw %struct.IndexTupleData, ptr %4, i32 0, i32 1
  %6 = load i16, ptr %5, align 2
  %7 = zext i16 %6 to i32
  %8 = and i32 %7, 8192
  %9 = icmp eq i32 %8, 0
  br i1 %9, label %10, label %11

10:                                               ; preds = %1
  store i1 false, ptr %2, align 1
  br label %20

11:                                               ; preds = %1
  %12 = load ptr, ptr %3, align 8
  %13 = getelementptr inbounds nuw %struct.IndexTupleData, ptr %12, i32 0, i32 0
  %14 = call zeroext i16 @ItemPointerGetOffsetNumberNoCheck(ptr noundef %13)
  %15 = zext i16 %14 to i32
  %16 = and i32 %15, 8192
  %17 = icmp eq i32 %16, 0
  br i1 %17, label %18, label %19

18:                                               ; preds = %11
  store i1 false, ptr %2, align 1
  br label %20

19:                                               ; preds = %11
  store i1 true, ptr %2, align 1
  br label %20

20:                                               ; preds = %19, %18, %10
  %21 = load i1, ptr %2, align 1
  ret i1 %21
}

; Function Attrs: inlinehint nounwind uwtable
define internal i64 @IndexTupleSize(ptr noundef %0) #2 {
  %2 = alloca ptr, align 8
  store ptr %0, ptr %2, align 8
  %3 = load ptr, ptr %2, align 8
  %4 = getelementptr inbounds nuw %struct.IndexTupleData, ptr %3, i32 0, i32 1
  %5 = load i16, ptr %4, align 2
  %6 = zext i16 %5 to i32
  %7 = and i32 %6, 8191
  %8 = sext i32 %7 to i64
  ret i64 %8
}

; Function Attrs: inlinehint nounwind uwtable
define internal ptr @BTreeTupleGetHeapTID(ptr noundef %0) #2 {
  %2 = alloca ptr, align 8
  %3 = alloca ptr, align 8
  store ptr %0, ptr %3, align 8
  %4 = load ptr, ptr %3, align 8
  %5 = call zeroext i1 @BTreeTupleIsPivot(ptr noundef %4)
  br i1 %5, label %6, label %20

6:                                                ; preds = %1
  %7 = load ptr, ptr %3, align 8
  %8 = getelementptr inbounds nuw %struct.IndexTupleData, ptr %7, i32 0, i32 0
  %9 = call zeroext i16 @ItemPointerGetOffsetNumberNoCheck(ptr noundef %8)
  %10 = zext i16 %9 to i32
  %11 = and i32 %10, 4096
  %12 = icmp ne i32 %11, 0
  br i1 %12, label %13, label %19

13:                                               ; preds = %6
  %14 = load ptr, ptr %3, align 8
  %15 = load ptr, ptr %3, align 8
  %16 = call i64 @IndexTupleSize(ptr noundef %15)
  %17 = getelementptr inbounds nuw i8, ptr %14, i64 %16
  %18 = getelementptr inbounds i8, ptr %17, i64 -6
  store ptr %18, ptr %2, align 8
  br label %30

19:                                               ; preds = %6
  store ptr null, ptr %2, align 8
  br label %30

20:                                               ; preds = %1
  %21 = load ptr, ptr %3, align 8
  %22 = call zeroext i1 @BTreeTupleIsPosting(ptr noundef %21)
  br i1 %22, label %23, label %26

23:                                               ; preds = %20
  %24 = load ptr, ptr %3, align 8
  %25 = call ptr @BTreeTupleGetPosting(ptr noundef %24)
  store ptr %25, ptr %2, align 8
  br label %30

26:                                               ; preds = %20
  br label %27

27:                                               ; preds = %26
  %28 = load ptr, ptr %3, align 8
  %29 = getelementptr inbounds nuw %struct.IndexTupleData, ptr %28, i32 0, i32 0
  store ptr %29, ptr %2, align 8
  br label %30

30:                                               ; preds = %27, %23, %19, %13
  %31 = load ptr, ptr %2, align 8
  ret ptr %31
}

; Function Attrs: inlinehint nounwind uwtable
define internal zeroext i16 @ItemPointerGetOffsetNumberNoCheck(ptr noundef %0) #2 {
  %2 = alloca ptr, align 8
  store ptr %0, ptr %2, align 8
  %3 = load ptr, ptr %2, align 8
  %4 = getelementptr inbounds nuw %struct.ItemPointerData, ptr %3, i32 0, i32 1
  %5 = load i16, ptr %4, align 2
  ret i16 %5
}

; Function Attrs: inlinehint nounwind uwtable
define internal zeroext i1 @BTreeTupleIsPivot(ptr noundef %0) #2 {
  %2 = alloca i1, align 1
  %3 = alloca ptr, align 8
  store ptr %0, ptr %3, align 8
  %4 = load ptr, ptr %3, align 8
  %5 = getelementptr inbounds nuw %struct.IndexTupleData, ptr %4, i32 0, i32 1
  %6 = load i16, ptr %5, align 2
  %7 = zext i16 %6 to i32
  %8 = and i32 %7, 8192
  %9 = icmp eq i32 %8, 0
  br i1 %9, label %10, label %11

10:                                               ; preds = %1
  store i1 false, ptr %2, align 1
  br label %20

11:                                               ; preds = %1
  %12 = load ptr, ptr %3, align 8
  %13 = getelementptr inbounds nuw %struct.IndexTupleData, ptr %12, i32 0, i32 0
  %14 = call zeroext i16 @ItemPointerGetOffsetNumberNoCheck(ptr noundef %13)
  %15 = zext i16 %14 to i32
  %16 = and i32 %15, 8192
  %17 = icmp ne i32 %16, 0
  br i1 %17, label %18, label %19

18:                                               ; preds = %11
  store i1 false, ptr %2, align 1
  br label %20

19:                                               ; preds = %11
  store i1 true, ptr %2, align 1
  br label %20

20:                                               ; preds = %19, %18, %10
  %21 = load i1, ptr %2, align 1
  ret i1 %21
}

; Function Attrs: nounwind uwtable
define dso_local ptr @_bt_mkscankey(ptr noundef %0, ptr noundef %1) #0 {
  %3 = alloca ptr, align 8
  %4 = alloca ptr, align 8
  %5 = alloca ptr, align 8
  %6 = alloca ptr, align 8
  %7 = alloca ptr, align 8
  %8 = alloca i32, align 4
  %9 = alloca ptr, align 8
  %10 = alloca i32, align 4
  %11 = alloca i32, align 4
  %12 = alloca ptr, align 8
  %13 = alloca i64, align 8
  %14 = alloca i8, align 1
  %15 = alloca i32, align 4
  store ptr %0, ptr %3, align 8
  store ptr %1, ptr %4, align 8
  call void @llvm.lifetime.start.p0(i64 8, ptr %5) #8
  call void @llvm.lifetime.start.p0(i64 8, ptr %6) #8
  call void @llvm.lifetime.start.p0(i64 8, ptr %7) #8
  call void @llvm.lifetime.start.p0(i64 4, ptr %8) #8
  call void @llvm.lifetime.start.p0(i64 8, ptr %9) #8
  call void @llvm.lifetime.start.p0(i64 4, ptr %10) #8
  call void @llvm.lifetime.start.p0(i64 4, ptr %11) #8
  %16 = load ptr, ptr %3, align 8
  %17 = getelementptr inbounds nuw %struct.RelationData, ptr %16, i32 0, i32 14
  %18 = load ptr, ptr %17, align 8
  store ptr %18, ptr %7, align 8
  %19 = load ptr, ptr %3, align 8
  %20 = getelementptr inbounds nuw %struct.RelationData, ptr %19, i32 0, i32 48
  %21 = load ptr, ptr %20, align 8
  %22 = getelementptr inbounds nuw %struct.FormData_pg_index, ptr %21, i32 0, i32 3
  %23 = load i16, ptr %22, align 2
  %24 = sext i16 %23 to i32
  store i32 %24, ptr %8, align 4
  %25 = load ptr, ptr %3, align 8
  %26 = getelementptr inbounds nuw %struct.RelationData, ptr %25, i32 0, i32 56
  %27 = load ptr, ptr %26, align 8
  store ptr %27, ptr %9, align 8
  %28 = load ptr, ptr %4, align 8
  %29 = icmp ne ptr %28, null
  br i1 %29, label %30, label %48

30:                                               ; preds = %2
  %31 = load ptr, ptr %4, align 8
  %32 = call zeroext i1 @BTreeTupleIsPivot(ptr noundef %31)
  br i1 %32, label %33, label %39

33:                                               ; preds = %30
  %34 = load ptr, ptr %4, align 8
  %35 = getelementptr inbounds nuw %struct.IndexTupleData, ptr %34, i32 0, i32 0
  %36 = call zeroext i16 @ItemPointerGetOffsetNumberNoCheck(ptr noundef %35)
  %37 = zext i16 %36 to i32
  %38 = and i32 %37, 4095
  br label %46

39:                                               ; preds = %30
  %40 = load ptr, ptr %3, align 8
  %41 = getelementptr inbounds nuw %struct.RelationData, ptr %40, i32 0, i32 48
  %42 = load ptr, ptr %41, align 8
  %43 = getelementptr inbounds nuw %struct.FormData_pg_index, ptr %42, i32 0, i32 2
  %44 = load i16, ptr %43, align 4
  %45 = sext i16 %44 to i32
  br label %46

46:                                               ; preds = %39, %33
  %47 = phi i32 [ %38, %33 ], [ %45, %39 ]
  br label %49

48:                                               ; preds = %2
  br label %49

49:                                               ; preds = %48, %46
  %50 = phi i32 [ %47, %46 ], [ 0, %48 ]
  store i32 %50, ptr %10, align 4
  %51 = load i32, ptr %8, align 4
  %52 = sext i32 %51 to i64
  %53 = mul i64 72, %52
  %54 = add i64 24, %53
  %55 = call ptr @palloc(i64 noundef %54)
  store ptr %55, ptr %5, align 8
  %56 = load ptr, ptr %4, align 8
  %57 = icmp ne ptr %56, null
  br i1 %57, label %58, label %64

58:                                               ; preds = %49
  %59 = load ptr, ptr %3, align 8
  %60 = load ptr, ptr %5, align 8
  %61 = getelementptr inbounds nuw %struct.BTScanInsertData, ptr %60, i32 0, i32 0
  %62 = load ptr, ptr %5, align 8
  %63 = getelementptr inbounds nuw %struct.BTScanInsertData, ptr %62, i32 0, i32 1
  call void @_bt_metaversion(ptr noundef %59, ptr noundef %61, ptr noundef %63)
  br label %69

64:                                               ; preds = %49
  %65 = load ptr, ptr %5, align 8
  %66 = getelementptr inbounds nuw %struct.BTScanInsertData, ptr %65, i32 0, i32 0
  store i8 1, ptr %66, align 8
  %67 = load ptr, ptr %5, align 8
  %68 = getelementptr inbounds nuw %struct.BTScanInsertData, ptr %67, i32 0, i32 1
  store i8 0, ptr %68, align 1
  br label %69

69:                                               ; preds = %64, %58
  %70 = load ptr, ptr %5, align 8
  %71 = getelementptr inbounds nuw %struct.BTScanInsertData, ptr %70, i32 0, i32 2
  store i8 0, ptr %71, align 2
  %72 = load ptr, ptr %5, align 8
  %73 = getelementptr inbounds nuw %struct.BTScanInsertData, ptr %72, i32 0, i32 3
  store i8 0, ptr %73, align 1
  %74 = load ptr, ptr %5, align 8
  %75 = getelementptr inbounds nuw %struct.BTScanInsertData, ptr %74, i32 0, i32 4
  store i8 0, ptr %75, align 4
  %76 = load i32, ptr %8, align 4
  %77 = load i32, ptr %10, align 4
  %78 = icmp slt i32 %76, %77
  br i1 %78, label %79, label %81

79:                                               ; preds = %69
  %80 = load i32, ptr %8, align 4
  br label %83

81:                                               ; preds = %69
  %82 = load i32, ptr %10, align 4
  br label %83

83:                                               ; preds = %81, %79
  %84 = phi i32 [ %80, %79 ], [ %82, %81 ]
  %85 = load ptr, ptr %5, align 8
  %86 = getelementptr inbounds nuw %struct.BTScanInsertData, ptr %85, i32 0, i32 6
  store i32 %84, ptr %86, align 8
  %87 = load ptr, ptr %5, align 8
  %88 = getelementptr inbounds nuw %struct.BTScanInsertData, ptr %87, i32 0, i32 0
  %89 = load i8, ptr %88, align 8, !range !4, !noundef !5
  %90 = trunc i8 %89 to i1
  br i1 %90, label %91, label %97

91:                                               ; preds = %83
  %92 = load ptr, ptr %4, align 8
  %93 = icmp ne ptr %92, null
  br i1 %93, label %94, label %97

94:                                               ; preds = %91
  %95 = load ptr, ptr %4, align 8
  %96 = call ptr @BTreeTupleGetHeapTID(ptr noundef %95)
  br label %98

97:                                               ; preds = %91, %83
  br label %98

98:                                               ; preds = %97, %94
  %99 = phi ptr [ %96, %94 ], [ null, %97 ]
  %100 = load ptr, ptr %5, align 8
  %101 = getelementptr inbounds nuw %struct.BTScanInsertData, ptr %100, i32 0, i32 5
  store ptr %99, ptr %101, align 8
  %102 = load ptr, ptr %5, align 8
  %103 = getelementptr inbounds nuw %struct.BTScanInsertData, ptr %102, i32 0, i32 7
  %104 = getelementptr inbounds [32 x %struct.ScanKeyData], ptr %103, i64 0, i64 0
  store ptr %104, ptr %6, align 8
  store i32 0, ptr %11, align 4
  br label %105

105:                                              ; preds = %160, %98
  %106 = load i32, ptr %11, align 4
  %107 = load i32, ptr %8, align 4
  %108 = icmp slt i32 %106, %107
  br i1 %108, label %109, label %163

109:                                              ; preds = %105
  call void @llvm.lifetime.start.p0(i64 8, ptr %12) #8
  call void @llvm.lifetime.start.p0(i64 8, ptr %13) #8
  call void @llvm.lifetime.start.p0(i64 1, ptr %14) #8
  call void @llvm.lifetime.start.p0(i64 4, ptr %15) #8
  %110 = load ptr, ptr %3, align 8
  %111 = load i32, ptr %11, align 4
  %112 = add i32 %111, 1
  %113 = trunc i32 %112 to i16
  %114 = call ptr @index_getprocinfo(ptr noundef %110, i16 noundef signext %113, i16 noundef zeroext 1)
  store ptr %114, ptr %12, align 8
  %115 = load i32, ptr %11, align 4
  %116 = load i32, ptr %10, align 4
  %117 = icmp slt i32 %115, %116
  br i1 %117, label %118, label %124

118:                                              ; preds = %109
  %119 = load ptr, ptr %4, align 8
  %120 = load i32, ptr %11, align 4
  %121 = add i32 %120, 1
  %122 = load ptr, ptr %7, align 8
  %123 = call i64 @index_getattr(ptr noundef %119, i32 noundef %121, ptr noundef %122, ptr noundef %14)
  store i64 %123, ptr %13, align 8
  br label %125

124:                                              ; preds = %109
  store i64 0, ptr %13, align 8
  store i8 1, ptr %14, align 1
  br label %125

125:                                              ; preds = %124, %118
  %126 = load i8, ptr %14, align 1, !range !4, !noundef !5
  %127 = trunc i8 %126 to i1
  %128 = select i1 %127, i32 1, i32 0
  %129 = load ptr, ptr %9, align 8
  %130 = load i32, ptr %11, align 4
  %131 = sext i32 %130 to i64
  %132 = getelementptr inbounds i16, ptr %129, i64 %131
  %133 = load i16, ptr %132, align 2
  %134 = sext i16 %133 to i32
  %135 = shl i32 %134, 24
  %136 = or i32 %128, %135
  store i32 %136, ptr %15, align 4
  %137 = load ptr, ptr %6, align 8
  %138 = load i32, ptr %11, align 4
  %139 = sext i32 %138 to i64
  %140 = getelementptr inbounds %struct.ScanKeyData, ptr %137, i64 %139
  %141 = load i32, ptr %15, align 4
  %142 = load i32, ptr %11, align 4
  %143 = add i32 %142, 1
  %144 = trunc i32 %143 to i16
  %145 = load ptr, ptr %3, align 8
  %146 = getelementptr inbounds nuw %struct.RelationData, ptr %145, i32 0, i32 62
  %147 = load ptr, ptr %146, align 8
  %148 = load i32, ptr %11, align 4
  %149 = sext i32 %148 to i64
  %150 = getelementptr inbounds i32, ptr %147, i64 %149
  %151 = load i32, ptr %150, align 4
  %152 = load ptr, ptr %12, align 8
  %153 = load i64, ptr %13, align 8
  call void @ScanKeyEntryInitializeWithInfo(ptr noundef %140, i32 noundef %141, i16 noundef signext %144, i16 noundef zeroext 0, i32 noundef 0, i32 noundef %151, ptr noundef %152, i64 noundef %153)
  %154 = load i8, ptr %14, align 1, !range !4, !noundef !5
  %155 = trunc i8 %154 to i1
  br i1 %155, label %156, label %159

156:                                              ; preds = %125
  %157 = load ptr, ptr %5, align 8
  %158 = getelementptr inbounds nuw %struct.BTScanInsertData, ptr %157, i32 0, i32 2
  store i8 1, ptr %158, align 2
  br label %159

159:                                              ; preds = %156, %125
  call void @llvm.lifetime.end.p0(i64 4, ptr %15) #8
  call void @llvm.lifetime.end.p0(i64 1, ptr %14) #8
  call void @llvm.lifetime.end.p0(i64 8, ptr %13) #8
  call void @llvm.lifetime.end.p0(i64 8, ptr %12) #8
  br label %160

160:                                              ; preds = %159
  %161 = load i32, ptr %11, align 4
  %162 = add i32 %161, 1
  store i32 %162, ptr %11, align 4
  br label %105, !llvm.loop !6

163:                                              ; preds = %105
  %164 = load ptr, ptr %3, align 8
  %165 = getelementptr inbounds nuw %struct.RelationData, ptr %164, i32 0, i32 48
  %166 = load ptr, ptr %165, align 8
  %167 = getelementptr inbounds nuw %struct.FormData_pg_index, ptr %166, i32 0, i32 5
  %168 = load i8, ptr %167, align 1, !range !4, !noundef !5
  %169 = trunc i8 %168 to i1
  br i1 %169, label %170, label %173

170:                                              ; preds = %163
  %171 = load ptr, ptr %5, align 8
  %172 = getelementptr inbounds nuw %struct.BTScanInsertData, ptr %171, i32 0, i32 2
  store i8 0, ptr %172, align 2
  br label %173

173:                                              ; preds = %170, %163
  %174 = load ptr, ptr %5, align 8
  call void @llvm.lifetime.end.p0(i64 4, ptr %11) #8
  call void @llvm.lifetime.end.p0(i64 4, ptr %10) #8
  call void @llvm.lifetime.end.p0(i64 8, ptr %9) #8
  call void @llvm.lifetime.end.p0(i64 4, ptr %8) #8
  call void @llvm.lifetime.end.p0(i64 8, ptr %7) #8
  call void @llvm.lifetime.end.p0(i64 8, ptr %6) #8
  call void @llvm.lifetime.end.p0(i64 8, ptr %5) #8
  ret ptr %174
}