; Function Attrs: nounwind uwtable
define dso_local noundef ptr @_bt_mkscankey(ptr noundef %0, ptr noundef %1) local_unnamed_addr #0 {
  %3 = alloca i8, align 1
  %4 = getelementptr inbounds nuw i8, ptr %0, i64 64
  %5 = load ptr, ptr %4, align 8
  %6 = getelementptr inbounds nuw i8, ptr %0, i64 328
  %7 = load ptr, ptr %6, align 8
  %8 = getelementptr inbounds nuw i8, ptr %7, i64 10
  %9 = load i16, ptr %8, align 2
  %10 = sext i16 %9 to i32
  %11 = getelementptr inbounds nuw i8, ptr %0, i64 392
  %12 = load ptr, ptr %11, align 8
  %13 = icmp ne ptr %1, null
  br i1 %13, label %14, label %34

14:                                               ; preds = %2
  %15 = getelementptr inbounds nuw i8, ptr %1, i64 6
  %16 = load i16, ptr %15, align 2
  %17 = and i16 %16, 8192
  %18 = icmp eq i16 %17, 0
  br i1 %18, label %BTreeTupleIsPivot.exit.thread, label %BTreeTupleIsPivot.exit

BTreeTupleIsPivot.exit:                           ; preds = %14
  %19 = getelementptr i8, ptr %1, i64 4
  %.val.i = load i16, ptr %19, align 2
  %20 = and i16 %.val.i, 8192
  %.not.i = icmp eq i16 %20, 0
  br i1 %.not.i, label %21, label %BTreeTupleIsPivot.exit.thread

21:                                               ; preds = %BTreeTupleIsPivot.exit
  %22 = and i16 %.val.i, 4095
  %23 = zext nneg i16 %22 to i32
  br label %27

BTreeTupleIsPivot.exit.thread:                    ; preds = %14, %BTreeTupleIsPivot.exit
  %24 = getelementptr inbounds nuw i8, ptr %7, i64 8
  %25 = load i16, ptr %24, align 4
  %26 = sext i16 %25 to i32
  br label %27

27:                                               ; preds = %21, %BTreeTupleIsPivot.exit.thread
  %.ph = phi i32 [ %26, %BTreeTupleIsPivot.exit.thread ], [ %23, %21 ]
  %28 = sext i16 %9 to i64
  %29 = mul nsw i64 %28, 72
  %30 = add nsw i64 %29, 24
  %31 = tail call ptr @palloc(i64 noundef %30) #14
  %32 = getelementptr inbounds nuw i8, ptr %31, i64 1
  tail call void @_bt_metaversion(ptr noundef nonnull %0, ptr noundef %31, ptr noundef nonnull %32) #14
  %.pre = load i8, ptr %31, align 8, !range !4
  %33 = trunc nuw i8 %.pre to i1
  br label %40

34:                                               ; preds = %2
  %35 = sext i16 %9 to i64
  %36 = mul nsw i64 %35, 72
  %37 = add nsw i64 %36, 24
  %38 = tail call ptr @palloc(i64 noundef %37) #14
  store i8 1, ptr %38, align 8
  %39 = getelementptr inbounds nuw i8, ptr %38, i64 1
  store i8 0, ptr %39, align 1
  br label %40

40:                                               ; preds = %34, %27
  %41 = phi i1 [ true, %34 ], [ %33, %27 ]
  %42 = phi ptr [ %38, %34 ], [ %31, %27 ]
  %43 = phi i32 [ 0, %34 ], [ %.ph, %27 ]
  %44 = getelementptr inbounds nuw i8, ptr %42, i64 2
  store i8 0, ptr %44, align 2
  %45 = getelementptr inbounds nuw i8, ptr %42, i64 3
  store i8 0, ptr %45, align 1
  %46 = getelementptr inbounds nuw i8, ptr %42, i64 4
  store i8 0, ptr %46, align 4
  %47 = tail call i32 @llvm.smin.i32(i32 %43, i32 %10)
  %48 = getelementptr inbounds nuw i8, ptr %42, i64 16
  store i32 %47, ptr %48, align 8
  %or.cond = and i1 %13, %41
  br i1 %or.cond, label %49, label %BTreeTupleGetHeapTID.exit

49:                                               ; preds = %40
  %50 = getelementptr inbounds nuw i8, ptr %1, i64 6
  %51 = load i16, ptr %50, align 2
  %52 = and i16 %51, 8192
  %53 = icmp eq i16 %52, 0
  br i1 %53, label %BTreeTupleGetHeapTID.exit, label %BTreeTupleIsPivot.exit.i

BTreeTupleIsPivot.exit.i:                         ; preds = %49
  %54 = getelementptr i8, ptr %1, i64 4
  %.val.i.i = load i16, ptr %54, align 2
  %55 = and i16 %.val.i.i, 8192
  %.not.i.i = icmp eq i16 %55, 0
  br i1 %.not.i.i, label %56, label %BTreeTupleIsPosting.exit.i

56:                                               ; preds = %BTreeTupleIsPivot.exit.i
  %57 = and i16 %.val.i.i, 4096
  %.not.i54 = icmp eq i16 %57, 0
  br i1 %.not.i54, label %BTreeTupleGetHeapTID.exit, label %58

58:                                               ; preds = %56
  %59 = and i16 %51, 8191
  %60 = zext nneg i16 %59 to i64
  %61 = getelementptr inbounds nuw i8, ptr %1, i64 %60
  %62 = getelementptr inbounds i8, ptr %61, i64 -6
  br label %BTreeTupleGetHeapTID.exit

BTreeTupleIsPosting.exit.i:                       ; preds = %BTreeTupleIsPivot.exit.i
  %.val.i11.i = load i16, ptr %1, align 2
  %63 = getelementptr i8, ptr %1, i64 2
  %.val2.i.i = load i16, ptr %63, align 2
  %64 = zext i16 %.val.i11.i to i64
  %65 = shl nuw nsw i64 %64, 16
  %66 = zext i16 %.val2.i.i to i64
  %67 = or disjoint i64 %65, %66
  %68 = getelementptr inbounds nuw i8, ptr %1, i64 %67
  br label %BTreeTupleGetHeapTID.exit

BTreeTupleGetHeapTID.exit:                        ; preds = %BTreeTupleIsPosting.exit.i, %58, %56, %49, %40
  %69 = phi ptr [ null, %40 ], [ %62, %58 ], [ %68, %BTreeTupleIsPosting.exit.i ], [ null, %56 ], [ %1, %49 ]
  %70 = getelementptr inbounds nuw i8, ptr %42, i64 8
  store ptr %69, ptr %70, align 8
  %71 = getelementptr inbounds nuw i8, ptr %42, i64 24
  %72 = icmp sgt i16 %9, 0
  br i1 %72, label %.lr.ph, label %._crit_edge

.lr.ph:                                           ; preds = %BTreeTupleGetHeapTID.exit
  %73 = getelementptr inbounds nuw i8, ptr %0, i64 440
  %74 = sext i32 %43 to i64
  %wide.trip.count = zext nneg i32 %10 to i64
  br label %75

75:                                               ; preds = %.lr.ph, %96
  %indvars.iv = phi i64 [ 0, %.lr.ph ], [ %indvars.iv.next, %96 ]
  call void @llvm.lifetime.start.p0(i64 1, ptr nonnull %3) #14
  %indvars.iv.next = add nuw nsw i64 %indvars.iv, 1
  %76 = trunc nuw nsw i64 %indvars.iv.next to i16
  %77 = tail call ptr @index_getprocinfo(ptr noundef nonnull %0, i16 noundef signext %76, i16 noundef zeroext 1) #14
  %78 = icmp slt i64 %indvars.iv, %74
  br i1 %78, label %79, label %82

79:                                               ; preds = %75
  %80 = trunc nuw nsw i64 %indvars.iv.next to i32
  %81 = call fastcc i64 @index_getattr(ptr noundef %1, i32 noundef %80, ptr noundef %5, ptr noundef %3)
  %.pre58 = load i8, ptr %3, align 1, !range !4
  br label %82

82:                                               ; preds = %75, %79
  %83 = phi i8 [ %.pre58, %79 ], [ 1, %75 ]
  %.051 = phi i64 [ %81, %79 ], [ 0, %75 ]
  %84 = zext nneg i8 %83 to i32
  %85 = getelementptr inbounds nuw i16, ptr %12, i64 %indvars.iv
  %86 = load i16, ptr %85, align 2
  %87 = zext i16 %86 to i32
  %88 = shl i32 %87, 24
  %89 = or disjoint i32 %88, %84
  %90 = getelementptr inbounds nuw %struct.ScanKeyData, ptr %71, i64 %indvars.iv
  %91 = load ptr, ptr %73, align 8
  %92 = getelementptr inbounds nuw i32, ptr %91, i64 %indvars.iv
  %93 = load i32, ptr %92, align 4
  tail call void @ScanKeyEntryInitializeWithInfo(ptr noundef nonnull %90, i32 noundef %89, i16 noundef signext %76, i16 noundef zeroext 0, i32 noundef 0, i32 noundef %93, ptr noundef %77, i64 noundef %.051) #14
  %94 = trunc nuw i8 %83 to i1
  br i1 %94, label %95, label %96

95:                                               ; preds = %82
  store i8 1, ptr %44, align 2
  br label %96

96:                                               ; preds = %95, %82
  call void @llvm.lifetime.end.p0(i64 1, ptr nonnull %3) #14
  %exitcond.not = icmp eq i64 %indvars.iv.next, %wide.trip.count
  br i1 %exitcond.not, label %._crit_edge, label %75, !llvm.loop !5

._crit_edge:                                      ; preds = %96, %BTreeTupleGetHeapTID.exit
  %97 = load ptr, ptr %6, align 8
  %98 = getelementptr inbounds nuw i8, ptr %97, i64 13
  %99 = load i8, ptr %98, align 1, !range !4, !noundef !7
  %100 = trunc nuw i8 %99 to i1
  br i1 %100, label %101, label %102

101:                                              ; preds = %._crit_edge
  store i8 0, ptr %44, align 2
  br label %102

102:                                              ; preds = %101, %._crit_edge
  ret ptr %42
}